Certificate:
    Data:
        Version: 3 (0x2)
        Serial Number: 2 (0x2)
        Signature Algorithm: sha1WithRSAEncryption
        Issuer: DC=com, DC=zepben, O=Zeppelin Bend Pty Ltd, CN=Zeppelin Bend Root CA
        Validity
            Not Before: Jul 16 06:01:47 2020 GMT
            Not After : Jul 16 06:01:47 2030 GMT
        Subject: DC=com, DC=zepben, O=Zeppelin Bend Pty Ltd, OU=Zeppelin Bend Signing CA, CN=Zepben Signing CA
        Subject Public Key Info:
            Public Key Algorithm: rsaEncryption
                RSA Public-Key: (4096 bit)
                Modulus:
                    00:e6:a9:cc:8c:63:0a:36:df:77:d2:0d:ed:be:ee:
                    7f:5a:1a:b7:32:72:9d:5d:51:9a:b5:d9:06:a7:85:
                    23:a1:f8:03:3e:80:f6:fd:9c:5c:b5:e6:57:4b:8d:
                    39:f6:19:89:9e:94:dc:35:3a:b4:dd:d6:cd:e3:7a:
                    cb:bc:cd:19:94:91:da:a8:1e:46:97:e7:5a:1f:91:
                    5b:c5:69:20:c2:8e:bd:88:11:7d:a9:5a:80:ed:66:
                    ce:9e:c8:e7:41:ea:ad:df:4f:88:b1:a3:51:d0:da:
                    28:d3:34:60:6f:96:21:d3:f6:9a:2f:2a:2d:34:cd:
                    6f:36:1b:3c:63:76:b6:db:fa:39:55:12:3e:1d:89:
                    53:e2:63:7d:92:77:be:22:c6:ed:8c:1a:89:6a:64:
                    42:4e:98:0a:78:cb:d1:44:99:10:85:61:e6:36:61:
                    c2:a9:6a:04:18:80:ea:73:7a:1b:3f:9b:f4:c1:a6:
                    2b:98:ed:b5:df:e4:14:ff:d3:14:33:8f:19:35:98:
                    5a:b6:70:f4:c6:ea:9f:84:14:b6:b9:1b:82:22:c2:
                    ca:a0:8d:00:64:2f:dc:f7:79:dc:24:d3:96:ad:35:
                    de:5a:21:96:35:95:77:5c:f3:90:c2:f8:c4:c8:52:
                    05:d7:3c:1e:30:a2:8b:93:8f:a1:1a:d9:ab:96:07:
                    fe:ac:fd:34:14:99:b3:fd:94:11:1b:e8:26:d9:0a:
                    c1:9e:5f:9c:a5:71:d4:72:02:fd:93:0b:08:72:e2:
                    20:80:6d:52:83:cb:be:23:cc:5c:b3:b8:3d:e7:23:
                    01:11:1a:de:02:b5:77:ef:52:67:34:09:0c:55:ad:
                    47:09:ba:a7:9c:51:15:32:eb:f1:93:5d:8a:6b:bb:
                    10:d5:91:45:5f:64:d0:53:8e:14:89:85:69:44:e7:
                    74:4a:b5:3a:66:30:f6:41:6d:b3:36:42:a1:88:b2:
                    93:ee:49:ce:97:10:ff:d9:ce:e4:d3:0d:12:02:bd:
                    8d:09:99:a7:e6:cb:9d:c4:85:c8:d0:f4:78:c5:d8:
                    9f:94:f9:56:75:b2:0d:f6:da:ec:a0:98:e0:a2:1a:
                    f8:73:23:78:a0:ca:f8:6f:73:21:50:74:7e:70:30:
                    08:a4:4b:6b:ab:76:35:83:21:a1:99:b6:95:83:b5:
                    17:4e:a7:34:54:fb:17:6a:f7:22:58:78:d2:fa:6e:
                    36:73:cf:de:56:ce:a6:6e:a7:d0:43:e2:94:bf:69:
                    d7:aa:89:7c:47:4b:b6:71:57:c3:d0:33:86:81:a4:
                    a4:10:d3:22:58:68:7e:54:33:fb:56:27:89:91:20:
                    91:9a:48:d0:37:48:f4:f5:bc:80:c8:69:e7:4c:b3:
                    81:0e:af
                Exponent: 65537 (0x10001)
        X509v3 extensions:
            X509v3 Key Usage: critical
                Certificate Sign, CRL Sign
            X509v3 Basic Constraints: critical
                CA:TRUE, pathlen:0
            X509v3 Subject Key Identifier: 
                44:5E:99:3D:8B:C7:3F:17:D9:11:2F:47:D1:9E:6A:58:E0:2E:CE:1B
            X509v3 Authority Key Identifier: 
                keyid:60:76:7D:0A:85:E2:EB:91:EA:B4:25:E1:F3:DC:49:A9:6F:42:D6:54

    Signature Algorithm: sha1WithRSAEncryption
         0c:62:b8:85:db:29:bf:bb:ed:7d:a4:09:29:2f:85:8f:85:5e:
         51:f9:20:dd:73:e3:46:05:15:fa:0c:d8:00:60:2e:97:af:36:
         9d:a0:56:e4:7d:54:75:d4:8f:86:52:f6:c4:82:db:b0:31:4c:
         2e:c4:98:bf:b3:91:fc:9c:c2:02:8b:a1:55:c2:6b:14:7e:5c:
         96:03:a4:05:0f:5e:08:3b:20:af:00:b9:f9:70:4a:b7:57:76:
         98:79:a9:89:b0:8d:07:81:69:fa:bd:8d:64:f0:e6:18:36:31:
         ba:6c:5b:9d:6e:76:ca:f2:19:e4:b6:18:2f:2a:52:cb:ff:b5:
         ab:e2:80:a0:1a:94:cc:a5:17:53:5e:41:75:b3:2b:42:97:b0:
         4e:06:c3:94:5e:38:61:2e:a6:86:7b:bb:fe:ed:b4:f3:d1:32:
         38:1b:02:0f:d2:53:bd:62:72:09:4a:d3:fc:e5:70:32:7f:18:
         e8:7f:39:4e:1f:65:f3:74:91:10:18:e9:1a:c1:6e:a5:d9:f6:
         d2:7f:0c:11:b6:cb:cc:45:04:9a:6c:43:10:f3:b0:66:0d:0c:
         89:e5:69:ba:6e:2c:25:9c:c3:9a:37:b0:36:0d:f8:1f:da:3a:
         1b:c3:ee:26:a4:a1:64:17:37:e1:38:78:61:b8:7f:98:be:aa:
         42:6c:76:e2:f6:20:66:32:4b:05:d2:de:4c:a1:5c:85:4f:78:
         a3:eb:c9:43:d4:3a:7d:d4:d4:51:e2:7d:03:c0:f0:46:4d:4b:
         bc:69:94:18:0f:64:41:9e:8e:56:fc:d1:5a:04:e4:e4:94:6f:
         63:a9:ac:33:83:07:af:60:88:62:0d:83:49:5d:77:72:a0:28:
         04:ed:92:c3:ed:d8:25:6d:09:34:7c:be:46:cc:39:a0:f7:19:
         0e:40:3e:72:8e:b8:be:11:69:6c:b4:ae:b0:51:53:b4:63:eb:
         1d:ef:83:58:b8:f9:a7:ae:2f:f9:aa:fb:00:4f:3d:69:8e:b7:
         51:ad:b8:8d:91:0c:c6:34:a4:a9:99:85:a2:22:f7:a9:be:65:
         42:4a:e7:33:7b:9b:7e:5e:4d:a7:4b:f1:2b:2d:84:ae:12:76:
         06:53:64:82:f8:a4:e3:4e:99:e6:e8:56:1a:b5:fe:fc:8b:c2:
         2d:4b:ff:16:89:26:aa:3c:ac:26:d9:33:a7:a1:ed:72:3c:d0:
         1d:6e:8e:90:db:e9:43:85:e2:b8:93:fb:ea:63:ab:e2:bc:00:
         02:cc:f1:e8:2d:08:ec:26:8f:a4:7f:ec:de:fc:56:10:b3:e5:
         d3:f6:5e:e8:cf:bd:38:48:28:4c:aa:e1:9e:83:f2:ff:ce:ca:
         71:d9:9c:97:2e:da:08:c1
-----BEGIN CERTIFICATE-----
MIIF2zCCA8OgAwIBAgIBAjANBgkqhkiG9w0BAQUFADBtMRMwEQYKCZImiZPyLGQB
GRYDY29tMRYwFAYKCZImiZPyLGQBGRYGemVwYmVuMR4wHAYDVQQKDBVaZXBwZWxp
biBCZW5kIFB0eSBMdGQxHjAcBgNVBAMMFVplcHBlbGluIEJlbmQgUm9vdCBDQTAe
Fw0yMDA3MTYwNjAxNDdaFw0zMDA3MTYwNjAxNDdaMIGMMRMwEQYKCZImiZPyLGQB
GRYDY29tMRYwFAYKCZImiZPyLGQBGRYGemVwYmVuMR4wHAYDVQQKDBVaZXBwZWxp
biBCZW5kIFB0eSBMdGQxITAfBgNVBAsMGFplcHBlbGluIEJlbmQgU2lnbmluZyBD
QTEaMBgGA1UEAwwRWmVwYmVuIFNpZ25pbmcgQ0EwggIiMA0GCSqGSIb3DQEBAQUA
A4ICDwAwggIKAoICAQDmqcyMYwo233fSDe2+7n9aGrcycp1dUZq12QanhSOh+AM+
gPb9nFy15ldLjTn2GYmelNw1OrTd1s3jesu8zRmUkdqoHkaX51ofkVvFaSDCjr2I
EX2pWoDtZs6eyOdB6q3fT4ixo1HQ2ijTNGBvliHT9povKi00zW82Gzxjdrbb+jlV
Ej4diVPiY32Sd74ixu2MGolqZEJOmAp4y9FEmRCFYeY2YcKpagQYgOpzehs/m/TB
piuY7bXf5BT/0xQzjxk1mFq2cPTG6p+EFLa5G4IiwsqgjQBkL9z3edwk05atNd5a
IZY1lXdc85DC+MTIUgXXPB4woouTj6Ea2auWB/6s/TQUmbP9lBEb6CbZCsGeX5yl
cdRyAv2TCwhy4iCAbVKDy74jzFyzuD3nIwERGt4CtXfvUmc0CQxVrUcJuqecURUy
6/GTXYpruxDVkUVfZNBTjhSJhWlE53RKtTpmMPZBbbM2QqGIspPuSc6XEP/ZzuTT
DRICvY0Jmafmy53EhcjQ9HjF2J+U+VZ1sg322uygmOCiGvhzI3igyvhvcyFQdH5w
MAikS2urdjWDIaGZtpWDtRdOpzRU+xdq9yJYeNL6bjZzz95WzqZup9BD4pS/adeq
iXxHS7ZxV8PQM4aBpKQQ0yJYaH5UM/tWJ4mRIJGaSNA3SPT1vIDIaedMs4EOrwID
AQABo2YwZDAOBgNVHQ8BAf8EBAMCAQYwEgYDVR0TAQH/BAgwBgEB/wIBADAdBgNV
HQ4EFgQURF6ZPYvHPxfZES9H0Z5qWOAuzhswHwYDVR0jBBgwFoAUYHZ9CoXi65Hq
tCXh89xJqW9C1lQwDQYJKoZIhvcNAQEFBQADggIBAAxiuIXbKb+77X2kCSkvhY+F
XlH5IN1z40YFFfoM2ABgLpevNp2gVuR9VHXUj4ZS9sSC27AxTC7EmL+zkfycwgKL
oVXCaxR+XJYDpAUPXgg7IK8AuflwSrdXdph5qYmwjQeBafq9jWTw5hg2MbpsW51u
dsryGeS2GC8qUsv/tavigKAalMylF1NeQXWzK0KXsE4Gw5ReOGEupoZ7u/7ttPPR
MjgbAg/SU71icglK0/zlcDJ/GOh/OU4fZfN0kRAY6RrBbqXZ9tJ/DBG2y8xFBJps
QxDzsGYNDInlabpuLCWcw5o3sDYN+B/aOhvD7iakoWQXN+E4eGG4f5i+qkJsduL2
IGYySwXS3kyhXIVPeKPryUPUOn3U1FHifQPA8EZNS7xplBgPZEGejlb80VoE5OSU
b2OprDODB69giGINg0ldd3KgKATtksPt2CVtCTR8vkbMOaD3GQ5APnKOuL4RaWy0
rrBRU7Rj6x3vg1i4+aeuL/mq+wBPPWmOt1GtuI2RDMY0pKmZhaIi96m+ZUJK5zN7
m35eTadL8SsthK4SdgZTZIL4pONOmeboVhq1/vyLwi1L/xaJJqo8rCbZM6eh7XI8
0B1ujpDb6UOF4riT++pjq+K8AALM8egtCOwmj6R/7N78VhCz5dP2XujPvThIKEyq
4Z6D8v/OynHZnJcu2gjB
-----END CERTIFICATE-----
